target datalayout = "e-m:e-p270:32:32-p271:32:32-p272:64:64-i64:64-i128:128-f80:128-n8:16:32:64-S128"
target triple = "x86_64-pc-linux-gnu"

%class.G1CMIsAliveClosure = type { %class.BoolObjectClosure, ptr }
%class.BoolObjectClosure = type { ptr }
%class.BitMap = type { ptr, i64 }
%class.G1MappingChangedListener = type { ptr }
%class.MemRegion = type { ptr, i64 }
%class.G1CMSubjectToDiscoveryClosure = type { %class.BoolObjectClosure, ptr }
%class.G1STWIsAliveClosure = type { %class.BoolObjectClosure, ptr }
%class.TimeInstant = type { %class.CompositeCounterRepresentation }
%class.CompositeCounterRepresentation = type { %class.Representation }
%class.Representation = type { %class.PairRep }
%class.PairRep = type { i64, i64 }
%class.G1CollectedHeap = type { %class.CollectedHeap, ptr, ptr, ptr, ptr, ptr, %class.TimeInstant, %class.G1HeapRegionSet, %class.G1HeapRegionSet, %class.G1MonotonicArenaMemoryStats, %class.G1MonotonicArenaMemoryStats, ptr, %class.G1RegionMappingChangedListener, ptr, %class.G1HeapRegionManager, ptr, %class.G1YoungGCAllocationFailureInjector, ptr, i64, i64, %class.G1EvacStats, %class.G1EvacStats, ptr, i32, i32, %class.G1CollectorState, i32, i32, %class.G1EdenRegions, %class.G1SurvivorRegions, ptr, ptr, ptr, ptr, %class.G1CollectionSet, ptr, %class.G1CardSetConfiguration, %class.G1MonotonicArenaFreePool, ptr, ptr, ptr, ptr, ptr, %class.G1STWIsAliveClosure, %class.G1STWSubjectToDiscoveryClosure, ptr, %class.G1CMIsAliveClosure, %class.G1CMSubjectToDiscoveryClosure, %class.G1HeapRegionAttrBiasedMappedArray }
%class.CollectedHeap = type { ptr, ptr, i64, i64, %class.SoftRefPolicy, %class.MemRegion, i8, i64, i32, i32, i32, i32, ptr, ptr }
%class.SoftRefPolicy = type { i8, i8 }
%class.G1HeapRegionSet = type { %class.G1HeapRegionSetBase.base, [7 x i8] }
%class.G1HeapRegionSetBase.base = type <{ ptr, ptr, i32, [4 x i8], ptr, i8 }>
%class.G1MonotonicArenaMemoryStats = type { [4 x i64], [4 x i64] }
%class.G1RegionMappingChangedListener = type { %class.G1MappingChangedListener }
%class.G1HeapRegionManager = type { ptr, ptr, %class.G1CommittedRegionMap, i32, [4 x i8], %class.G1HeapRegionTable, ptr, ptr, %class.G1FreeRegionList }
%class.G1CommittedRegionMap = type { ptr, %class.CHeapBitMap, %class.CHeapBitMap, i32, i32 }
%class.CHeapBitMap = type <{ %class.GrowableBitMap, i8, [7 x i8] }>
%class.GrowableBitMap = type { %class.BitMap }
%class.G1HeapRegionTable = type { %class.G1BiasedMappedArray.base, [4 x i8] }
%class.G1BiasedMappedArray.base = type { %class.G1BiasedMappedArrayBase.base }
%class.G1BiasedMappedArrayBase.base = type <{ ptr, ptr, ptr, i64, ptr, i64, i32 }>
%class.G1FreeRegionList = type { %class.G1HeapRegionSetBase.base, ptr, ptr, ptr, ptr }
%class.G1YoungGCAllocationFailureInjector = type { i8 }
%class.G1EvacStats = type { %class.PLABStats, i64, i64, %class.AdaptiveWeightedAverage, i64, i32, i64, i64, i64, i64, i64 }
%class.PLABStats = type { ptr, ptr, i64, i64, i64, i64 }
%class.AdaptiveWeightedAverage = type { float, i32, i32, i8, float }
%class.G1CollectorState = type { i8, i8, i8, i8, i8, i8, i8 }
%class.G1EdenRegions = type { i32, i64, %class.G1RegionsOnNodes }
%class.G1RegionsOnNodes = type { ptr, ptr }
%class.G1SurvivorRegions = type { ptr, i64, %class.G1RegionsOnNodes }
%class.G1CollectionSet = type { ptr, ptr, %class.G1CollectionSetCandidates, ptr, i32, i32, i32, i32, i32, %class.G1CollectionCandidateRegionList, i32, i64 }
%class.G1CollectionSetCandidates = type { [8 x i8], %class.G1CollectionCandidateList, %class.G1CollectionCandidateList, ptr, i32, i32 }
%class.G1CollectionCandidateList = type { %class.GrowableArray }
%class.GrowableArray = type { %class.GrowableArrayWithAllocator, %class.GrowableArrayMetadata }
%class.GrowableArrayWithAllocator = type { %class.GrowableArrayView }
%class.GrowableArrayView = type { %class.GrowableArrayBase, ptr }
%class.GrowableArrayBase = type { i32, i32 }
%class.GrowableArrayMetadata = type { i64 }
%class.G1CollectionCandidateRegionList = type { %class.GrowableArray.2 }
%class.GrowableArray.2 = type { %class.GrowableArrayWithAllocator.3, %class.GrowableArrayMetadata }
%class.GrowableArrayWithAllocator.3 = type { %class.GrowableArrayView.4 }
%class.GrowableArrayView.4 = type { %class.GrowableArrayBase, ptr }
%class.G1CardSetConfiguration = type { i32, i32, i32, i32, i32, i32, i32, i32, i32, i32, i32, ptr }
%class.G1MonotonicArenaFreePool = type { i32, ptr }
%class.G1STWSubjectToDiscoveryClosure = type { %class.BoolObjectClosure, ptr }
%class.G1HeapRegionAttrBiasedMappedArray = type { %class.G1BiasedMappedArray.base.6, [4 x i8] }
%class.G1BiasedMappedArray.base.6 = type { %class.G1BiasedMappedArrayBase.base }
%class.WorkerThreads = type { ptr, ptr, ptr, i32, i32, i32, %class.WorkerTaskDispatcher }
%class.WorkerTaskDispatcher = type { ptr, i32, i32, %class.Semaphore, %class.Semaphore }
%class.Semaphore = type { %class.PosixSemaphore }
%class.PosixSemaphore = type { %union.sem_t }
%union.sem_t = type { i64, [24 x i8] }
%class.G1BiasedMappedArrayBase = type <{ ptr, ptr, ptr, i64, ptr, i64, i32, [4 x i8] }>

@g_assert_poison = external global ptr, align 8
@.str.29 = private unnamed_addr constant [44 x i8] c"src/hotspot/share/gc/g1/g1CollectedHeap.cpp\00", align 1
@.str.63 = private unnamed_addr constant [26 x i8] c"guarantee(!result) failed\00", align 1
@.str.64 = private unnamed_addr constant [26 x i8] c"Must not cancel iteration\00", align 1

; Function Attrs: mustprogress nounwind uwtable
define linkonce_odr hidden noundef ptr @_ZNK19G1BiasedMappedArrayIP12G1HeapRegionE4baseEv(ptr noundef nonnull align 8 dereferenceable(52) %0) #1 comdat align 2 {
  %2 = alloca ptr, align 8
  store ptr %0, ptr %2, align 8
  %3 = load ptr, ptr %2, align 8
  %4 = getelementptr inbounds %class.G1BiasedMappedArrayBase, ptr %3, i32 0, i32 2
  %5 = load ptr, ptr %4, align 8
  ret ptr %5
}

; Function Attrs: mustprogress nounwind uwtable
define linkonce_odr hidden void @_ZNK23G1BiasedMappedArrayBase12verify_indexEm(ptr noundef nonnull align 8 dereferenceable(52) %0, i64 noundef %1) #1 comdat align 2 {
  %3 = alloca ptr, align 8
  %4 = alloca i64, align 8
  store ptr %0, ptr %3, align 8
  store i64 %1, ptr %4, align 8
  ret void
}

; Function Attrs: mustprogress nounwind uwtable
define linkonce_odr hidden noundef ptr @_ZNK19G1BiasedMappedArrayIP12G1HeapRegionE12get_by_indexEm(ptr noundef nonnull align 8 dereferenceable(52) %0, i64 noundef %1) #1 comdat align 2 {
  %3 = alloca ptr, align 8
  %4 = alloca i64, align 8
  store ptr %0, ptr %3, align 8
  store i64 %1, ptr %4, align 8
  %5 = load ptr, ptr %3, align 8
  %6 = load i64, ptr %4, align 8
  call void @_ZNK23G1BiasedMappedArrayBase12verify_indexEm(ptr noundef nonnull align 8 dereferenceable(52) %5, i64 noundef %6)
  %7 = call noundef ptr @_ZNK19G1BiasedMappedArrayIP12G1HeapRegionE4baseEv(ptr noundef nonnull align 8 dereferenceable(52) %5)
  %8 = load i64, ptr %4, align 8
  %9 = getelementptr inbounds ptr, ptr %7, i64 %8
  %10 = load ptr, ptr %9, align 8
  ret ptr %10
}

; Function Attrs: mustprogress nounwind uwtable
define linkonce_odr hidden noundef ptr @_ZNK19G1HeapRegionManager2atEj(ptr noundef nonnull align 8 dereferenceable(232) %0, i32 noundef %1) #1 comdat align 2 {
  %3 = alloca ptr, align 8
  %4 = alloca i32, align 4
  %5 = alloca ptr, align 8
  store ptr %0, ptr %3, align 8
  store i32 %1, ptr %4, align 4
  %6 = load ptr, ptr %3, align 8
  %7 = getelementptr inbounds %class.G1HeapRegionManager, ptr %6, i32 0, i32 5
  %8 = load i32, ptr %4, align 4
  %9 = zext i32 %8 to i64
  %10 = call noundef ptr @_ZNK19G1BiasedMappedArrayIP12G1HeapRegionE12get_by_indexEm(ptr noundef nonnull align 8 dereferenceable(52) %7, i64 noundef %9)
  store ptr %10, ptr %5, align 8
  %11 = load ptr, ptr %5, align 8
  ret ptr %11
}

; Function Attrs: mustprogress nounwind uwtable
define linkonce_odr hidden noundef ptr @_ZNK15G1CollectedHeap9region_atEj(ptr noundef nonnull align 8 dereferenceable(1488) %0, i32 noundef %1) #1 comdat align 2 {
  %3 = alloca ptr, align 8
  %4 = alloca i32, align 4
  store ptr %0, ptr %3, align 8
  store i32 %1, ptr %4, align 4
  %5 = load ptr, ptr %3, align 8
  %6 = getelementptr inbounds %class.G1CollectedHeap, ptr %5, i32 0, i32 14
  %7 = load i32, ptr %4, align 4
  %8 = call noundef ptr @_ZNK19G1HeapRegionManager2atEj(ptr noundef nonnull align 8 dereferenceable(232) %6, i32 noundef %7)
  ret ptr %8
}

; Function Attrs: mustprogress nounwind uwtable
define linkonce_odr hidden noundef i32 @_ZNK13WorkerThreads14active_workersEv(ptr noundef nonnull align 8 dereferenceable(120) %0) #1 comdat align 2 {
  %2 = alloca ptr, align 8
  store ptr %0, ptr %2, align 8
  %3 = load ptr, ptr %2, align 8
  %4 = getelementptr inbounds %class.WorkerThreads, ptr %3, i32 0, i32 5
  %5 = load i32, ptr %4, align 8
  ret i32 %5
}

; Function Attrs: mustprogress nounwind uwtable
define linkonce_odr hidden noundef ptr @_ZNK15G1CollectedHeap7workersEv(ptr noundef nonnull align 8 dereferenceable(1488) %0) #1 comdat align 2 {
  %2 = alloca ptr, align 8
  store ptr %0, ptr %2, align 8
  %3 = load ptr, ptr %2, align 8
  %4 = getelementptr inbounds %class.G1CollectedHeap, ptr %3, i32 0, i32 4
  %5 = load ptr, ptr %4, align 8
  ret ptr %5
}

; Function Attrs: mustprogress nounwind uwtable
define hidden void @_ZNK15G1CollectedHeap25par_iterate_regions_arrayEP19G1HeapRegionClosureP19G1HeapRegionClaimerPKjmj(ptr noundef nonnull align 8 dereferenceable(1488) %0, ptr noundef %1, ptr noundef %2, ptr noundef %3, i64 noundef %4, i32 noundef %5) #1 align 2 {
  %7 = alloca ptr, align 8
  %8 = alloca ptr, align 8
  %9 = alloca ptr, align 8
  %10 = alloca ptr, align 8
  %11 = alloca i64, align 8
  %12 = alloca i32, align 4
  %13 = alloca i32, align 4
  %14 = alloca i64, align 8
  %15 = alloca i64, align 8
  %16 = alloca i32, align 4
  %17 = alloca ptr, align 8
  %18 = alloca i8, align 1
  store ptr %0, ptr %7, align 8
  store ptr %1, ptr %8, align 8
  store ptr %2, ptr %9, align 8
  store ptr %3, ptr %10, align 8
  store i64 %4, ptr %11, align 8
  store i32 %5, ptr %12, align 4
  %19 = load ptr, ptr %7, align 8
  %20 = load i64, ptr %11, align 8
  %21 = icmp eq i64 %20, 0
  br i1 %21, label %22, label %23

22:                                               ; preds = %6
  br label %74

23:                                               ; preds = %6
  %24 = call noundef ptr @_ZNK15G1CollectedHeap7workersEv(ptr noundef nonnull align 8 dereferenceable(1488) %19)
  %25 = call noundef i32 @_ZNK13WorkerThreads14active_workersEv(ptr noundef nonnull align 8 dereferenceable(120) %24)
  store i32 %25, ptr %13, align 4
  %26 = load i32, ptr %12, align 4
  %27 = zext i32 %26 to i64
  %28 = load i64, ptr %11, align 8
  %29 = mul i64 %27, %28
  %30 = load i32, ptr %13, align 4
  %31 = zext i32 %30 to i64
  %32 = udiv i64 %29, %31
  store i64 %32, ptr %14, align 8
  %33 = load i64, ptr %14, align 8
  store i64 %33, ptr %15, align 8
  br label %34

34:                                               ; preds = %70, %23
  %35 = load ptr, ptr %10, align 8
  %36 = load i64, ptr %15, align 8
  %37 = getelementptr inbounds i32, ptr %35, i64 %36
  %38 = load i32, ptr %37, align 4
  store i32 %38, ptr %16, align 4
  %39 = load ptr, ptr %9, align 8
  %40 = icmp eq ptr %39, null
  br i1 %40, label %45, label %41

41:                                               ; preds = %34
  %42 = load ptr, ptr %9, align 8
  %43 = load i32, ptr %16, align 4
  %44 = call noundef zeroext i1 @_ZN19G1HeapRegionClaimer12claim_regionEj(ptr noundef nonnull align 8 dereferenceable(16) %42, i32 noundef %43)
  br i1 %44, label %45, label %62

45:                                               ; preds = %41, %34
  %46 = load i32, ptr %16, align 4
  %47 = call noundef ptr @_ZNK15G1CollectedHeap9region_atEj(ptr noundef nonnull align 8 dereferenceable(1488) %19, i32 noundef %46)
  store ptr %47, ptr %17, align 8
  %48 = load ptr, ptr %8, align 8
  %49 = load ptr, ptr %17, align 8
  %50 = load ptr, ptr %48, align 8
  %51 = getelementptr inbounds ptr, ptr %50, i64 0
  %52 = load ptr, ptr %51, align 8
  %53 = call noundef zeroext i1 %52(ptr noundef nonnull align 8 dereferenceable(9) %48, ptr noundef %49)
  %54 = zext i1 %53 to i8
  store i8 %54, ptr %18, align 1
  br label %55

55:                                               ; preds = %45
  %56 = load i8, ptr %18, align 1
  %57 = trunc i8 %56 to i1
  br i1 %57, label %58, label %60

58:                                               ; preds = %55
  %59 = load ptr, ptr @g_assert_poison, align 8
  store i8 88, ptr %59, align 1
  call void (ptr, i32, ptr, ptr, ...) @_Z15report_vm_errorPKciS0_S0_z(ptr noundef @.str.29, i32 noundef 1989, ptr noundef @.str.63, ptr noundef @.str.64) #11
  unreachable

60:                                               ; preds = %55
  br label %61

61:                                               ; preds = %60
  br label %62

62:                                               ; preds = %61, %41
  %63 = load i64, ptr %15, align 8
  %64 = add i64 %63, 1
  store i64 %64, ptr %15, align 8
  %65 = load i64, ptr %15, align 8
  %66 = load i64, ptr %11, align 8
  %67 = icmp eq i64 %65, %66
  br i1 %67, label %68, label %69

68:                                               ; preds = %62
  store i64 0, ptr %15, align 8
  br label %69

69:                                               ; preds = %68, %62
  br label %70

70:                                               ; preds = %69
  %71 = load i64, ptr %15, align 8
  %72 = load i64, ptr %14, align 8
  %73 = icmp ne i64 %71, %72
  br i1 %73, label %34, label %74, !llvm.loop !20

74:                                               ; preds = %70, %22
  ret void
}