; Function Attrs: mustprogress nounwind uwtable
define hidden void @_ZNK15G1CollectedHeap25par_iterate_regions_arrayEP19G1HeapRegionClosureP19G1HeapRegionClaimerPKjmj(ptr nocapture noundef nonnull readonly align 8 dereferenceable(1488) %0, ptr noundef %1, ptr noundef %2, ptr nocapture noundef readonly %3, i64 noundef %4, i32 noundef %5) local_unnamed_addr #0 align 2 {
  %7 = icmp eq i64 %4, 0
  br i1 %7, label %.loopexit, label %8

8:                                                ; preds = %6
  %9 = getelementptr inbounds i8, ptr %0, i64 128
  %10 = load ptr, ptr %9, align 8
  %11 = getelementptr inbounds i8, ptr %10, i64 32
  %12 = load i32, ptr %11, align 8
  %13 = zext i32 %5 to i64
  %14 = mul i64 %13, %4
  %15 = zext i32 %12 to i64
  %16 = udiv i64 %14, %15
  %17 = icmp eq ptr %2, null
  %18 = getelementptr inbounds i8, ptr %0, i64 496
  br i1 %17, label %.split.us, label %.split

.split.us:                                        ; preds = %8, %28
  %.0.us = phi i64 [ %spec.store.select.us, %28 ], [ %16, %8 ]
  %19 = getelementptr inbounds i32, ptr %3, i64 %.0.us
  %20 = load i32, ptr %19, align 4
  %21 = zext i32 %20 to i64
  %22 = load ptr, ptr %18, align 8
  %23 = getelementptr inbounds ptr, ptr %22, i64 %21
  %24 = load ptr, ptr %23, align 8
  %25 = load ptr, ptr %1, align 8
  %26 = load ptr, ptr %25, align 8
  %27 = tail call noundef zeroext i1 %26(ptr noundef nonnull align 8 dereferenceable(9) %1, ptr noundef %24) #23
  br i1 %27, label %.split22.us, label %28

28:                                               ; preds = %.split.us
  %29 = add i64 %.0.us, 1
  %30 = icmp eq i64 %29, %4
  %spec.store.select.us = select i1 %30, i64 0, i64 %29
  %.not.us = icmp eq i64 %spec.store.select.us, %16
  br i1 %.not.us, label %.loopexit, label %.split.us, !llvm.loop !23

.split:                                           ; preds = %8, %43
  %.0 = phi i64 [ %spec.store.select, %43 ], [ %16, %8 ]
  %31 = getelementptr inbounds i32, ptr %3, i64 %.0
  %32 = load i32, ptr %31, align 4
  %33 = tail call noundef zeroext i1 @_ZN19G1HeapRegionClaimer12claim_regionEj(ptr noundef nonnull align 8 dereferenceable(16) %2, i32 noundef %32) #23
  br i1 %33, label %34, label %43

34:                                               ; preds = %.split
  %35 = zext i32 %32 to i64
  %36 = load ptr, ptr %18, align 8
  %37 = getelementptr inbounds ptr, ptr %36, i64 %35
  %38 = load ptr, ptr %37, align 8
  %39 = load ptr, ptr %1, align 8
  %40 = load ptr, ptr %39, align 8
  %41 = tail call noundef zeroext i1 %40(ptr noundef nonnull align 8 dereferenceable(9) %1, ptr noundef %38) #23
  br i1 %41, label %.split22.us, label %43

.split22.us:                                      ; preds = %34, %.split.us
  %42 = load ptr, ptr @g_assert_poison, align 8
  store i8 88, ptr %42, align 1
  tail call void (ptr, i32, ptr, ptr, ...) @_Z15report_vm_errorPKciS0_S0_z(ptr noundef nonnull @.str.29, i32 noundef 1989, ptr noundef nonnull @.str.63, ptr noundef nonnull @.str.64) #24
  unreachable

43:                                               ; preds = %34, %.split
  %44 = add i64 %.0, 1
  %45 = icmp eq i64 %44, %4
  %spec.store.select = select i1 %45, i64 0, i64 %44
  %.not = icmp eq i64 %spec.store.select, %16
  br i1 %.not, label %.loopexit, label %.split, !llvm.loop !23

.loopexit:                                        ; preds = %43, %28, %6
  ret void
}